; Function Attrs: nounwind uwtable
define internal fastcc range(i32 -1, 1) i32 @read_offsets(i32 noundef %0, ptr noundef nonnull writeonly captures(none) initializes((0, 8)) %1, ptr noundef nonnull %2) unnamed_addr #0 {
  %4 = alloca [1 x %struct.iovec], align 16
  %5 = alloca [1 x %struct.iovec], align 16
  %6 = tail call fastcc i64 @search_map_for_section(i32 noundef %0, ptr noundef nonnull @.str.8, ptr noundef nonnull @.str.9)
  %7 = icmp eq i64 %6, 0
  br i1 %7, label %get_py_runtime.exit, label %get_py_runtime.exit.thread

get_py_runtime.exit.thread:                       ; preds = %3
  store i64 %6, ptr %1, align 8, !tbaa !8
  br label %14

get_py_runtime.exit:                              ; preds = %3
  %8 = tail call fastcc i64 @search_map_for_section(i32 noundef %0, ptr noundef nonnull @.str.8, ptr noundef nonnull @.str.10)
  store i64 %8, ptr %1, align 8, !tbaa !8
  %9 = icmp eq i64 %8, 0
  br i1 %9, label %10, label %14

10:                                               ; preds = %get_py_runtime.exit
  %11 = tail call ptr @PyErr_Occurred() #9
  %.not = icmp eq ptr %11, null
  br i1 %.not, label %12, label %31

12:                                               ; preds = %10
  %13 = load ptr, ptr @PyExc_RuntimeError, align 8, !tbaa !33
  tail call void @PyErr_SetString(ptr noundef %13, ptr noundef nonnull @.str.15) #9
  br label %31

14:                                               ; preds = %get_py_runtime.exit.thread, %get_py_runtime.exit
  %.0.i10 = phi i64 [ %6, %get_py_runtime.exit.thread ], [ %8, %get_py_runtime.exit ]
  call void @llvm.lifetime.start.p0(i64 16, ptr nonnull %4) #9
  call void @llvm.lifetime.start.p0(i64 16, ptr nonnull %5) #9
  %15 = getelementptr inbounds nuw i8, ptr %4, i64 8
  %16 = getelementptr inbounds nuw i8, ptr %5, i64 8
  br label %17

17:                                               ; preds = %26, %14
  %.0.i8 = phi i64 [ 0, %14 ], [ %27, %26 ]
  %18 = getelementptr i8, ptr %2, i64 %.0.i8
  store ptr %18, ptr %4, align 16, !tbaa !29
  %19 = sub i64 656, %.0.i8
  store i64 %19, ptr %15, align 8, !tbaa !32
  %20 = add i64 %.0.i8, %.0.i10
  %21 = inttoptr i64 %20 to ptr
  store ptr %21, ptr %5, align 16, !tbaa !29
  store i64 %19, ptr %16, align 8, !tbaa !32
  %22 = call i64 @process_vm_readv(i32 noundef %0, ptr noundef nonnull %4, i64 noundef 1, ptr noundef nonnull %5, i64 noundef 1, i64 noundef 0) #9
  %.fr13 = freeze i64 %22
  %23 = icmp slt i64 %.fr13, 0
  br i1 %23, label %read_memory.exit.thread, label %26

read_memory.exit.thread:                          ; preds = %17
  %24 = load ptr, ptr @PyExc_OSError, align 8, !tbaa !33
  %25 = call ptr @PyErr_SetFromErrno(ptr noundef %24) #9
  call void @llvm.lifetime.end.p0(i64 16, ptr nonnull %5) #9
  call void @llvm.lifetime.end.p0(i64 16, ptr nonnull %4) #9
  br label %30

26:                                               ; preds = %17
  %27 = add i64 %.fr13, %.0.i8
  %28 = load i64, ptr %15, align 8, !tbaa !32
  %.not.i = icmp eq i64 %.fr13, %28
  br i1 %.not.i, label %read_memory.exit, label %17, !llvm.loop !35

read_memory.exit:                                 ; preds = %26
  call void @llvm.lifetime.end.p0(i64 16, ptr nonnull %5) #9
  call void @llvm.lifetime.end.p0(i64 16, ptr nonnull %4) #9
  %29 = icmp slt i64 %27, 0
  br i1 %29, label %30, label %31

30:                                               ; preds = %read_memory.exit.thread, %read_memory.exit
  br label %31

31:                                               ; preds = %30, %read_memory.exit, %10, %12
  %.0 = phi i32 [ -1, %12 ], [ -1, %10 ], [ -1, %30 ], [ 0, %read_memory.exit ]
  ret i32 %.0
}